; Function Attrs: nounwind sspstrong uwtable
define hidden i64 @rb_int_ge(i64 noundef %0, i64 noundef %1) #2 {
  %3 = and i64 %0, 1
  %.not = icmp eq i64 %3, 0
  br i1 %.not, label %27, label %4

4:                                                ; preds = %2
  %5 = and i64 %1, 1
  %.not21.i = icmp eq i64 %5, 0
  br i1 %.not21.i, label %10, label %6

6:                                                ; preds = %4
  %7 = ashr i64 %0, 1
  %8 = ashr i64 %1, 1
  %.not14.i = icmp slt i64 %7, %8
  %9 = select i1 %.not14.i, i64 0, i64 20
  br label %fix_ge.exit

10:                                               ; preds = %4
  %11 = icmp eq i64 %1, 0
  %12 = and i64 %1, 6
  %13 = icmp ne i64 %12, 0
  %14 = or i1 %11, %13
  br i1 %14, label %rbimpl_RB_TYPE_P_fastpath.exit.thread.i, label %rbimpl_RB_TYPE_P_fastpath.exit.i

rbimpl_RB_TYPE_P_fastpath.exit.i:                 ; preds = %10
  %15 = inttoptr i64 %1 to ptr
  %16 = load i64, ptr %15, align 8, !tbaa !11
  %17 = and i64 %16, 31
  switch i64 %17, label %RB_FLOAT_TYPE_P.exit.thread19.i [
    i64 10, label %18
    i64 4, label %RB_FLOAT_TYPE_P.exit.thread.i
  ]

18:                                               ; preds = %rbimpl_RB_TYPE_P_fastpath.exit.i
  %19 = tail call i64 @rb_big_cmp(i64 noundef %1, i64 noundef %0) #26
  %.not.i = icmp eq i64 %19, 3
  %20 = select i1 %.not.i, i64 0, i64 20
  br label %fix_ge.exit

rbimpl_RB_TYPE_P_fastpath.exit.thread.i:          ; preds = %10
  %21 = and i64 %1, 2
  %.not22.i = icmp eq i64 %21, 0
  br i1 %.not22.i, label %RB_FLOAT_TYPE_P.exit.thread19.i, label %RB_FLOAT_TYPE_P.exit.thread.i

RB_FLOAT_TYPE_P.exit.thread.i:                    ; preds = %rbimpl_RB_TYPE_P_fastpath.exit.thread.i, %rbimpl_RB_TYPE_P_fastpath.exit.i
  %22 = tail call i64 @rb_integer_float_cmp(i64 noundef %0, i64 noundef %1) #26
  %23 = and i64 %22, -3
  %24 = icmp eq i64 %23, 1
  %25 = select i1 %24, i64 20, i64 0
  br label %fix_ge.exit

RB_FLOAT_TYPE_P.exit.thread19.i:                  ; preds = %rbimpl_RB_TYPE_P_fastpath.exit.thread.i, %rbimpl_RB_TYPE_P_fastpath.exit.i
  %26 = tail call i64 @rb_num_coerce_relop(i64 noundef %0, i64 noundef %1, i64 noundef 139)
  br label %fix_ge.exit

27:                                               ; preds = %2
  %28 = icmp eq i64 %0, 0
  %29 = and i64 %0, 6
  %30 = icmp ne i64 %29, 0
  %31 = or i1 %28, %30
  br i1 %31, label %fix_ge.exit, label %rbimpl_RB_TYPE_P_fastpath.exit

rbimpl_RB_TYPE_P_fastpath.exit:                   ; preds = %27
  %32 = inttoptr i64 %0 to ptr
  %33 = load i64, ptr %32, align 8, !tbaa !11
  %34 = and i64 %33, 31
  %35 = icmp eq i64 %34, 10
  br i1 %35, label %36, label %fix_ge.exit

36:                                               ; preds = %rbimpl_RB_TYPE_P_fastpath.exit
  %37 = tail call i64 @rb_big_ge(i64 noundef %0, i64 noundef %1) #26
  br label %fix_ge.exit

fix_ge.exit:                                      ; preds = %27, %RB_FLOAT_TYPE_P.exit.thread19.i, %RB_FLOAT_TYPE_P.exit.thread.i, %18, %6, %rbimpl_RB_TYPE_P_fastpath.exit, %36
  %.0 = phi i64 [ %37, %36 ], [ 4, %rbimpl_RB_TYPE_P_fastpath.exit ], [ %9, %6 ], [ %20, %18 ], [ %25, %RB_FLOAT_TYPE_P.exit.thread.i ], [ %26, %RB_FLOAT_TYPE_P.exit.thread19.i ], [ 4, %27 ]
  ret i64 %.0
}